; Function Attrs: mustprogress uwtable
define dso_local noundef ptr @_Z13btPoolReallocPvmm(ptr noundef %ptr, i64 noundef %oldsize, i64 noundef %newsize) local_unnamed_addr #2 {
entry:
  %0 = load i64, ptr getelementptr inbounds (%class.GIM_STANDARD_ALLOCATOR, ptr @g_main_allocator, i64 0, i32 0, i32 4), align 8
  %cmp6.not.i.i = icmp eq i64 %0, 0
  br i1 %cmp6.not.i.i, label %if.end.i.i, label %while.body.i.i

while.body.i.i:                                   ; preds = %entry, %while.body.i.i
  %i.07.i.i = phi i64 [ %inc.i.i, %while.body.i.i ], [ 0, %entry ]
  %arrayidx.i.i = getelementptr inbounds [16 x ptr], ptr getelementptr inbounds (%class.GIM_STANDARD_ALLOCATOR, ptr @g_main_allocator, i64 0, i32 0, i32 3, i64 0), i64 0, i64 %i.07.i.i
  %1 = load ptr, ptr %arrayidx.i.i, align 8
  %call.i.i = tail call noundef ptr @_ZN19btGenericMemoryPool8allocateEm(ptr noundef nonnull align 8 dereferenceable(56) %1, i64 noundef %newsize)
  %inc.i.i = add nuw i64 %i.07.i.i, 1
  %2 = load i64, ptr getelementptr inbounds (%class.GIM_STANDARD_ALLOCATOR, ptr @g_main_allocator, i64 0, i32 0, i32 4), align 8
  %cmp.i.i = icmp ult i64 %inc.i.i, %2
  %cmp2.i.i = icmp eq ptr %call.i.i, null
  %3 = and i1 %cmp2.i.i, %cmp.i.i
  br i1 %3, label %while.body.i.i, label %while.end.i.i, !llvm.loop !9

while.end.i.i:                                    ; preds = %while.body.i.i
  br i1 %cmp2.i.i, label %if.end.i.i, label %_Z11btPoolAllocm.exit

if.end.i.i:                                       ; preds = %while.end.i.i, %entry
  %4 = load i64, ptr getelementptr inbounds (%class.GIM_STANDARD_ALLOCATOR, ptr @g_main_allocator, i64 0, i32 0, i32 1), align 8
  %5 = load i64, ptr getelementptr inbounds (%class.GIM_STANDARD_ALLOCATOR, ptr @g_main_allocator, i64 0, i32 0, i32 2), align 8
  %mul.i.i.i.i = mul i64 %5, %4
  %cmp.not.i.i.i = icmp ult i64 %mul.i.i.i.i, %newsize
  br i1 %cmp.not.i.i.i, label %if.then4.i.i.i, label %if.end.i.i.i

if.end.i.i.i:                                     ; preds = %if.end.i.i
  %call2.i.i.i = tail call noundef ptr @_ZN22btGenericPoolAllocator13push_new_poolEv(ptr noundef nonnull align 8 dereferenceable(160) @g_main_allocator)
  %cmp3.i.i.i = icmp eq ptr %call2.i.i.i, null
  br i1 %cmp3.i.i.i, label %if.then4.i.i.i, label %if.end6.i.i.i

if.then4.i.i.i:                                   ; preds = %if.end.i.i.i, %if.end.i.i
  %call5.i.i.i = tail call noundef ptr @_Z22btAlignedAllocInternalmi(i64 noundef %newsize, i32 noundef 16)
  br label %_Z11btPoolAllocm.exit

if.end6.i.i.i:                                    ; preds = %if.end.i.i.i
  %call7.i.i.i = tail call noundef ptr @_ZN19btGenericMemoryPool8allocateEm(ptr noundef nonnull align 8 dereferenceable(56) %call2.i.i.i, i64 noundef %newsize)
  br label %_Z11btPoolAllocm.exit

_Z11btPoolAllocm.exit:                            ; preds = %while.end.i.i, %if.then4.i.i.i, %if.end6.i.i.i
  %retval.0.i.i = phi ptr [ %call.i.i, %while.end.i.i ], [ %call5.i.i.i, %if.then4.i.i.i ], [ %call7.i.i.i, %if.end6.i.i.i ]
  %cond = tail call i64 @llvm.umin.i64(i64 %oldsize, i64 %newsize)
  tail call void @llvm.memcpy.p0.p0.i64(ptr align 1 %retval.0.i.i, ptr align 1 %ptr, i64 %cond, i1 false)
  %6 = load i64, ptr getelementptr inbounds (%class.GIM_STANDARD_ALLOCATOR, ptr @g_main_allocator, i64 0, i32 0, i32 4), align 8
  %cmp5.i.i = icmp eq i64 %6, 0
  br i1 %cmp5.i.i, label %if.end.i.i11, label %while.body.lr.ph.i.i

while.body.lr.ph.i.i:                             ; preds = %_Z11btPoolAllocm.exit
  %sub.ptr.lhs.cast.i.i.i = ptrtoint ptr %ptr to i64
  br label %while.body.i.i6

while.body.i.i6:                                  ; preds = %_ZN19btGenericMemoryPool10freeMemoryEPv.exit.i.i, %while.body.lr.ph.i.i
  %i.06.i.i = phi i64 [ 0, %while.body.lr.ph.i.i ], [ %inc.i.i10, %_ZN19btGenericMemoryPool10freeMemoryEPv.exit.i.i ]
  %arrayidx.i.i7 = getelementptr inbounds [16 x ptr], ptr getelementptr inbounds (%class.GIM_STANDARD_ALLOCATOR, ptr @g_main_allocator, i64 0, i32 0, i32 3, i64 0), i64 0, i64 %i.06.i.i
  %7 = load ptr, ptr %arrayidx.i.i7, align 8
  %8 = load ptr, ptr %7, align 8
  %cmp.i.i.i = icmp ugt ptr %8, %ptr
  br i1 %cmp.i.i.i, label %_ZN19btGenericMemoryPool10freeMemoryEPv.exit.i.i, label %if.end.i.i.i8

if.end.i.i.i8:                                    ; preds = %while.body.i.i6
  %sub.ptr.rhs.cast.i.i.i = ptrtoint ptr %8 to i64
  %sub.ptr.sub.i.i.i = sub i64 %sub.ptr.lhs.cast.i.i.i, %sub.ptr.rhs.cast.i.i.i
  %m_element_size.i.i.i.i = getelementptr inbounds i8, ptr %7, i64 40
  %9 = load i64, ptr %m_element_size.i.i.i.i, align 8
  %m_max_element_count.i.i.i.i = getelementptr inbounds i8, ptr %7, i64 48
  %10 = load i64, ptr %m_max_element_count.i.i.i.i, align 8
  %mul.i.i.i.i9 = mul i64 %10, %9
  %cmp2.not.i.i.i = icmp ult i64 %sub.ptr.sub.i.i.i, %mul.i.i.i.i9
  br i1 %cmp2.not.i.i.i, label %while.end.thread.i.i, label %_ZN19btGenericMemoryPool10freeMemoryEPv.exit.i.i

while.end.thread.i.i:                             ; preds = %if.end.i.i.i8
  %div.i.i.i = udiv i64 %sub.ptr.sub.i.i.i, %9
  %m_free_nodes.i.i.i = getelementptr inbounds i8, ptr %7, i64 8
  %11 = load ptr, ptr %m_free_nodes.i.i.i, align 8
  %m_free_nodes_count.i.i.i = getelementptr inbounds i8, ptr %7, i64 32
  %12 = load i64, ptr %m_free_nodes_count.i.i.i, align 8
  %arrayidx.i.i.i = getelementptr inbounds i64, ptr %11, i64 %12
  store i64 %div.i.i.i, ptr %arrayidx.i.i.i, align 8
  %13 = load i64, ptr %m_free_nodes_count.i.i.i, align 8
  %inc.i.i.i = add i64 %13, 1
  store i64 %inc.i.i.i, ptr %m_free_nodes_count.i.i.i, align 8
  br label %_Z10btPoolFreePv.exit

_ZN19btGenericMemoryPool10freeMemoryEPv.exit.i.i: ; preds = %if.end.i.i.i8, %while.body.i.i6
  %inc.i.i10 = add nuw i64 %i.06.i.i, 1
  %exitcond.not.i = icmp eq i64 %inc.i.i10, %6
  br i1 %exitcond.not.i, label %if.end.i.i11, label %while.body.i.i6, !llvm.loop !10

if.end.i.i11:                                     ; preds = %_ZN19btGenericMemoryPool10freeMemoryEPv.exit.i.i, %_Z11btPoolAllocm.exit
  tail call void @_Z21btAlignedFreeInternalPv(ptr noundef %ptr)
  br label %_Z10btPoolFreePv.exit

_Z10btPoolFreePv.exit:                            ; preds = %while.end.thread.i.i, %if.end.i.i11
  ret ptr %retval.0.i.i
}